; Function Attrs: mustprogress nofree norecurse nosync nounwind willreturn memory(none) uwtable
define zeroext range(i8 0, 4) i8 @l_Std_Tactic_BVDecide_LRAT_Internal_Assignment_removeAssignment(i8 noundef zeroext %0, i8 noundef zeroext %1) local_unnamed_addr #0 {
  %3 = icmp eq i8 %0, 0
  br i1 %3, label %4, label %8

4:                                                ; preds = %2
  %5 = zext i8 %1 to i32
  %6 = add nsw i32 %5, -1
  %switch.and = and i32 %6, -3
  %switch.selectcmp = icmp eq i32 %switch.and, 0
  %7 = select i1 %switch.selectcmp, i8 3, i8 0
  br label %lean_dec.exit

8:                                                ; preds = %2
  %9 = add i8 %1, -1
  %switch = icmp ult i8 %9, 2
  %spec.select = select i1 %switch, i8 1, i8 3
  br label %lean_dec.exit

lean_dec.exit:                                    ; preds = %8, %4
  %.1 = phi i8 [ %7, %4 ], [ %spec.select, %8 ]
  ret i8 %.1
}